; Function Attrs: cold nounwind optsize uwtable
define internal fastcc void @cleanup(ptr noundef %0) unnamed_addr #0 {
  %2 = getelementptr inbounds nuw i8, ptr %0, i64 24
  tail call void @av_freep(ptr noundef nonnull %2) #9
  %3 = getelementptr inbounds nuw i8, ptr %0, i64 32
  tail call void @av_freep(ptr noundef nonnull %3) #9
  %4 = getelementptr inbounds nuw i8, ptr %0, i64 40
  tail call void @av_freep(ptr noundef nonnull %4) #9
  %5 = getelementptr inbounds nuw i8, ptr %0, i64 48
  tail call void @av_freep(ptr noundef nonnull %5) #9
  %6 = getelementptr inbounds nuw i8, ptr %0, i64 8
  tail call void @av_freep(ptr noundef nonnull %6) #9
  %7 = getelementptr inbounds nuw i8, ptr %0, i64 16
  tail call void @av_freep(ptr noundef nonnull %7) #9
  %8 = getelementptr inbounds nuw i8, ptr %0, i64 64
  tail call void @av_freep(ptr noundef nonnull %8) #9
  %9 = getelementptr inbounds nuw i8, ptr %0, i64 72
  tail call void @av_freep(ptr noundef nonnull %9) #9
  %10 = getelementptr inbounds nuw i8, ptr %0, i64 33424
  tail call void @ff_deflate_end(ptr noundef nonnull %10) #9
  ret void
}